target datalayout = "e-m:e-p270:32:32-p271:32:32-p272:64:64-i64:64-i128:128-f80:128-n8:16:32:64-S128"
target triple = "x86_64-pc-linux-gnu"

%struct._zval_struct = type { %union._zend_value, %union.anon, %union.anon.2 }
%union._zend_value = type { i64 }
%union.anon = type { i32 }
%union.anon.2 = type { i32 }
%struct._zend_execute_data = type { ptr, ptr, ptr, ptr, %struct._zval_struct, ptr, ptr, ptr, ptr }
%struct.lconv = type { ptr, ptr, ptr, ptr, ptr, ptr, ptr, ptr, ptr, ptr, i8, i8, i8, i8, i8, i8, i8, i8, i8, i8, i8, i8, i8, i8 }

@.str.23 = private unnamed_addr constant [14 x i8] c"decimal_point\00", align 1
@.str.24 = private unnamed_addr constant [14 x i8] c"thousands_sep\00", align 1
@.str.25 = private unnamed_addr constant [16 x i8] c"int_curr_symbol\00", align 1
@.str.26 = private unnamed_addr constant [16 x i8] c"currency_symbol\00", align 1
@.str.27 = private unnamed_addr constant [18 x i8] c"mon_decimal_point\00", align 1
@.str.28 = private unnamed_addr constant [18 x i8] c"mon_thousands_sep\00", align 1
@.str.29 = private unnamed_addr constant [14 x i8] c"positive_sign\00", align 1
@.str.30 = private unnamed_addr constant [14 x i8] c"negative_sign\00", align 1
@.str.31 = private unnamed_addr constant [16 x i8] c"int_frac_digits\00", align 1
@.str.32 = private unnamed_addr constant [12 x i8] c"frac_digits\00", align 1
@.str.33 = private unnamed_addr constant [14 x i8] c"p_cs_precedes\00", align 1
@.str.34 = private unnamed_addr constant [15 x i8] c"p_sep_by_space\00", align 1
@.str.35 = private unnamed_addr constant [14 x i8] c"n_cs_precedes\00", align 1
@.str.36 = private unnamed_addr constant [15 x i8] c"n_sep_by_space\00", align 1
@.str.37 = private unnamed_addr constant [12 x i8] c"p_sign_posn\00", align 1
@.str.38 = private unnamed_addr constant [12 x i8] c"n_sign_posn\00", align 1
@.str.39 = private unnamed_addr constant [9 x i8] c"grouping\00", align 1
@.str.40 = private unnamed_addr constant [13 x i8] c"mon_grouping\00", align 1

; Function Attrs: alwaysinline nounwind uwtable
define internal void @add_assoc_long(ptr noundef %0, ptr noundef %1, i64 noundef %2) #7 {
  %4 = alloca ptr, align 8
  %5 = alloca ptr, align 8
  %6 = alloca i64, align 8
  store ptr %0, ptr %4, align 8, !tbaa !15
  store ptr %1, ptr %5, align 8, !tbaa !10
  store i64 %2, ptr %6, align 8, !tbaa !31
  %7 = load ptr, ptr %4, align 8, !tbaa !15
  %8 = load ptr, ptr %5, align 8, !tbaa !10
  %9 = load ptr, ptr %5, align 8, !tbaa !10
  %10 = call i64 @strlen(ptr noundef %9) #23
  %11 = load i64, ptr %6, align 8, !tbaa !31
  call void @add_assoc_long_ex(ptr noundef %7, ptr noundef %8, i64 noundef %10, i64 noundef %11)
  ret void
}

; Function Attrs: alwaysinline nounwind uwtable
define internal void @add_assoc_string(ptr noundef %0, ptr noundef %1, ptr noundef %2) #7 {
  %4 = alloca ptr, align 8
  %5 = alloca ptr, align 8
  %6 = alloca ptr, align 8
  store ptr %0, ptr %4, align 8, !tbaa !15
  store ptr %1, ptr %5, align 8, !tbaa !10
  store ptr %2, ptr %6, align 8, !tbaa !10
  %7 = load ptr, ptr %4, align 8, !tbaa !15
  %8 = load ptr, ptr %5, align 8, !tbaa !10
  %9 = load ptr, ptr %5, align 8, !tbaa !10
  %10 = call i64 @strlen(ptr noundef %9) #23
  %11 = load ptr, ptr %6, align 8, !tbaa !10
  call void @add_assoc_string_ex(ptr noundef %7, ptr noundef %8, i64 noundef %10, ptr noundef %11)
  ret void
}

; Function Attrs: nounwind uwtable
define dso_local ptr @localeconv_r(ptr noundef %0) #0 {
  %2 = alloca ptr, align 8
  store ptr %0, ptr %2, align 8, !tbaa !4
  %3 = load ptr, ptr %2, align 8, !tbaa !4
  %4 = call ptr @localeconv() #22
  call void @llvm.memcpy.p0.p0.i64(ptr align 8 %3, ptr align 8 %4, i64 96, i1 false), !tbaa.struct !9
  %5 = load ptr, ptr %2, align 8, !tbaa !4
  ret ptr %5
}

; Function Attrs: nounwind uwtable
define hidden void @zif_localeconv(ptr noundef %0, ptr noundef %1) #0 {
  %3 = alloca ptr, align 8
  %4 = alloca ptr, align 8
  %5 = alloca %struct._zval_struct, align 8
  %6 = alloca %struct._zval_struct, align 8
  %7 = alloca i64, align 8
  %8 = alloca i64, align 8
  %9 = alloca i32, align 4
  %10 = alloca ptr, align 8
  %11 = alloca ptr, align 8
  %12 = alloca ptr, align 8
  %13 = alloca ptr, align 8
  %14 = alloca ptr, align 8
  %15 = alloca ptr, align 8
  %16 = alloca %struct.lconv, align 8
  store ptr %0, ptr %3, align 8, !tbaa !13
  store ptr %1, ptr %4, align 8, !tbaa !15
  call void @llvm.lifetime.start.p0(i64 16, ptr %5) #22
  call void @llvm.lifetime.start.p0(i64 16, ptr %6) #22
  call void @llvm.lifetime.start.p0(i64 8, ptr %7) #22
  call void @llvm.lifetime.start.p0(i64 8, ptr %8) #22
  br label %17

17:                                               ; preds = %2
  %18 = load ptr, ptr %3, align 8, !tbaa !13
  %19 = getelementptr inbounds nuw %struct._zend_execute_data, ptr %18, i32 0, i32 4
  %20 = getelementptr inbounds nuw %struct._zval_struct, ptr %19, i32 0, i32 2
  %21 = load i32, ptr %20, align 4, !tbaa !12
  %22 = icmp ne i32 %21, 0
  %23 = xor i1 %22, true
  %24 = xor i1 %23, true
  %25 = zext i1 %24 to i32
  %26 = sext i32 %25 to i64
  %27 = call i64 @llvm.expect.i64(i64 %26, i64 0)
  %28 = icmp ne i64 %27, 0
  br i1 %28, label %29, label %30

29:                                               ; preds = %17
  call void @zend_wrong_parameters_none_error()
  store i32 1, ptr %9, align 4
  br label %164

30:                                               ; preds = %17
  br label %31

31:                                               ; preds = %30
  br label %32

32:                                               ; preds = %31
  br label %33

33:                                               ; preds = %32
  call void @llvm.lifetime.start.p0(i64 8, ptr %10) #22
  %34 = call ptr @_zend_new_array_0()
  store ptr %34, ptr %10, align 8, !tbaa !71
  call void @llvm.lifetime.start.p0(i64 8, ptr %11) #22
  %35 = load ptr, ptr %4, align 8, !tbaa !15
  store ptr %35, ptr %11, align 8, !tbaa !15
  %36 = load ptr, ptr %10, align 8, !tbaa !71
  %37 = load ptr, ptr %11, align 8, !tbaa !15
  %38 = getelementptr inbounds nuw %struct._zval_struct, ptr %37, i32 0, i32 0
  store ptr %36, ptr %38, align 8, !tbaa !12
  %39 = load ptr, ptr %11, align 8, !tbaa !15
  %40 = getelementptr inbounds nuw %struct._zval_struct, ptr %39, i32 0, i32 1
  store i32 775, ptr %40, align 8, !tbaa !12
  call void @llvm.lifetime.end.p0(i64 8, ptr %11) #22
  call void @llvm.lifetime.end.p0(i64 8, ptr %10) #22
  br label %41

41:                                               ; preds = %33
  br label %42

42:                                               ; preds = %41
  br label %43

43:                                               ; preds = %42
  call void @llvm.lifetime.start.p0(i64 8, ptr %12) #22
  %44 = call ptr @_zend_new_array_0()
  store ptr %44, ptr %12, align 8, !tbaa !71
  call void @llvm.lifetime.start.p0(i64 8, ptr %13) #22
  store ptr %5, ptr %13, align 8, !tbaa !15
  %45 = load ptr, ptr %12, align 8, !tbaa !71
  %46 = load ptr, ptr %13, align 8, !tbaa !15
  %47 = getelementptr inbounds nuw %struct._zval_struct, ptr %46, i32 0, i32 0
  store ptr %45, ptr %47, align 8, !tbaa !12
  %48 = load ptr, ptr %13, align 8, !tbaa !15
  %49 = getelementptr inbounds nuw %struct._zval_struct, ptr %48, i32 0, i32 1
  store i32 775, ptr %49, align 8, !tbaa !12
  call void @llvm.lifetime.end.p0(i64 8, ptr %13) #22
  call void @llvm.lifetime.end.p0(i64 8, ptr %12) #22
  br label %50

50:                                               ; preds = %43
  br label %51

51:                                               ; preds = %50
  br label %52

52:                                               ; preds = %51
  call void @llvm.lifetime.start.p0(i64 8, ptr %14) #22
  %53 = call ptr @_zend_new_array_0()
  store ptr %53, ptr %14, align 8, !tbaa !71
  call void @llvm.lifetime.start.p0(i64 8, ptr %15) #22
  store ptr %6, ptr %15, align 8, !tbaa !15
  %54 = load ptr, ptr %14, align 8, !tbaa !71
  %55 = load ptr, ptr %15, align 8, !tbaa !15
  %56 = getelementptr inbounds nuw %struct._zval_struct, ptr %55, i32 0, i32 0
  store ptr %54, ptr %56, align 8, !tbaa !12
  %57 = load ptr, ptr %15, align 8, !tbaa !15
  %58 = getelementptr inbounds nuw %struct._zval_struct, ptr %57, i32 0, i32 1
  store i32 775, ptr %58, align 8, !tbaa !12
  call void @llvm.lifetime.end.p0(i64 8, ptr %15) #22
  call void @llvm.lifetime.end.p0(i64 8, ptr %14) #22
  br label %59

59:                                               ; preds = %52
  br label %60

60:                                               ; preds = %59
  call void @llvm.lifetime.start.p0(i64 96, ptr %16) #22
  %61 = call ptr @localeconv_r(ptr noundef %16)
  %62 = getelementptr inbounds nuw %struct.lconv, ptr %16, i32 0, i32 2
  %63 = load ptr, ptr %62, align 8, !tbaa !135
  %64 = call i64 @strlen(ptr noundef %63) #23
  store i64 %64, ptr %7, align 8, !tbaa !31
  store i64 0, ptr %8, align 8, !tbaa !31
  br label %65

65:                                               ; preds = %77, %60
  %66 = load i64, ptr %8, align 8, !tbaa !31
  %67 = load i64, ptr %7, align 8, !tbaa !31
  %68 = icmp ult i64 %66, %67
  br i1 %68, label %69, label %80

69:                                               ; preds = %65
  %70 = load i64, ptr %8, align 8, !tbaa !31
  %71 = getelementptr inbounds nuw %struct.lconv, ptr %16, i32 0, i32 2
  %72 = load ptr, ptr %71, align 8, !tbaa !135
  %73 = load i64, ptr %8, align 8, !tbaa !31
  %74 = getelementptr inbounds nuw i8, ptr %72, i64 %73
  %75 = load i8, ptr %74, align 1, !tbaa !12
  %76 = sext i8 %75 to i64
  call void @add_index_long(ptr noundef %5, i64 noundef %70, i64 noundef %76)
  br label %77

77:                                               ; preds = %69
  %78 = load i64, ptr %8, align 8, !tbaa !31
  %79 = add i64 %78, 1
  store i64 %79, ptr %8, align 8, !tbaa !31
  br label %65

80:                                               ; preds = %65
  %81 = getelementptr inbounds nuw %struct.lconv, ptr %16, i32 0, i32 7
  %82 = load ptr, ptr %81, align 8, !tbaa !137
  %83 = call i64 @strlen(ptr noundef %82) #23
  store i64 %83, ptr %7, align 8, !tbaa !31
  store i64 0, ptr %8, align 8, !tbaa !31
  br label %84

84:                                               ; preds = %96, %80
  %85 = load i64, ptr %8, align 8, !tbaa !31
  %86 = load i64, ptr %7, align 8, !tbaa !31
  %87 = icmp ult i64 %85, %86
  br i1 %87, label %88, label %99

88:                                               ; preds = %84
  %89 = load i64, ptr %8, align 8, !tbaa !31
  %90 = getelementptr inbounds nuw %struct.lconv, ptr %16, i32 0, i32 7
  %91 = load ptr, ptr %90, align 8, !tbaa !137
  %92 = load i64, ptr %8, align 8, !tbaa !31
  %93 = getelementptr inbounds nuw i8, ptr %91, i64 %92
  %94 = load i8, ptr %93, align 1, !tbaa !12
  %95 = sext i8 %94 to i64
  call void @add_index_long(ptr noundef %6, i64 noundef %89, i64 noundef %95)
  br label %96

96:                                               ; preds = %88
  %97 = load i64, ptr %8, align 8, !tbaa !31
  %98 = add i64 %97, 1
  store i64 %98, ptr %8, align 8, !tbaa !31
  br label %84

99:                                               ; preds = %84
  %100 = load ptr, ptr %4, align 8, !tbaa !15
  %101 = getelementptr inbounds nuw %struct.lconv, ptr %16, i32 0, i32 0
  %102 = load ptr, ptr %101, align 8, !tbaa !138
  call void @add_assoc_string(ptr noundef %100, ptr noundef @.str.23, ptr noundef %102)
  %103 = load ptr, ptr %4, align 8, !tbaa !15
  %104 = getelementptr inbounds nuw %struct.lconv, ptr %16, i32 0, i32 1
  %105 = load ptr, ptr %104, align 8, !tbaa !139
  call void @add_assoc_string(ptr noundef %103, ptr noundef @.str.24, ptr noundef %105)
  %106 = load ptr, ptr %4, align 8, !tbaa !15
  %107 = getelementptr inbounds nuw %struct.lconv, ptr %16, i32 0, i32 3
  %108 = load ptr, ptr %107, align 8, !tbaa !140
  call void @add_assoc_string(ptr noundef %106, ptr noundef @.str.25, ptr noundef %108)
  %109 = load ptr, ptr %4, align 8, !tbaa !15
  %110 = getelementptr inbounds nuw %struct.lconv, ptr %16, i32 0, i32 4
  %111 = load ptr, ptr %110, align 8, !tbaa !141
  call void @add_assoc_string(ptr noundef %109, ptr noundef @.str.26, ptr noundef %111)
  %112 = load ptr, ptr %4, align 8, !tbaa !15
  %113 = getelementptr inbounds nuw %struct.lconv, ptr %16, i32 0, i32 5
  %114 = load ptr, ptr %113, align 8, !tbaa !142
  call void @add_assoc_string(ptr noundef %112, ptr noundef @.str.27, ptr noundef %114)
  %115 = load ptr, ptr %4, align 8, !tbaa !15
  %116 = getelementptr inbounds nuw %struct.lconv, ptr %16, i32 0, i32 6
  %117 = load ptr, ptr %116, align 8, !tbaa !143
  call void @add_assoc_string(ptr noundef %115, ptr noundef @.str.28, ptr noundef %117)
  %118 = load ptr, ptr %4, align 8, !tbaa !15
  %119 = getelementptr inbounds nuw %struct.lconv, ptr %16, i32 0, i32 8
  %120 = load ptr, ptr %119, align 8, !tbaa !144
  call void @add_assoc_string(ptr noundef %118, ptr noundef @.str.29, ptr noundef %120)
  %121 = load ptr, ptr %4, align 8, !tbaa !15
  %122 = getelementptr inbounds nuw %struct.lconv, ptr %16, i32 0, i32 9
  %123 = load ptr, ptr %122, align 8, !tbaa !145
  call void @add_assoc_string(ptr noundef %121, ptr noundef @.str.30, ptr noundef %123)
  %124 = load ptr, ptr %4, align 8, !tbaa !15
  %125 = getelementptr inbounds nuw %struct.lconv, ptr %16, i32 0, i32 10
  %126 = load i8, ptr %125, align 8, !tbaa !146
  %127 = sext i8 %126 to i64
  call void @add_assoc_long(ptr noundef %124, ptr noundef @.str.31, i64 noundef %127)
  %128 = load ptr, ptr %4, align 8, !tbaa !15
  %129 = getelementptr inbounds nuw %struct.lconv, ptr %16, i32 0, i32 11
  %130 = load i8, ptr %129, align 1, !tbaa !147
  %131 = sext i8 %130 to i64
  call void @add_assoc_long(ptr noundef %128, ptr noundef @.str.32, i64 noundef %131)
  %132 = load ptr, ptr %4, align 8, !tbaa !15
  %133 = getelementptr inbounds nuw %struct.lconv, ptr %16, i32 0, i32 12
  %134 = load i8, ptr %133, align 2, !tbaa !148
  %135 = sext i8 %134 to i64
  call void @add_assoc_long(ptr noundef %132, ptr noundef @.str.33, i64 noundef %135)
  %136 = load ptr, ptr %4, align 8, !tbaa !15
  %137 = getelementptr inbounds nuw %struct.lconv, ptr %16, i32 0, i32 13
  %138 = load i8, ptr %137, align 1, !tbaa !149
  %139 = sext i8 %138 to i64
  call void @add_assoc_long(ptr noundef %136, ptr noundef @.str.34, i64 noundef %139)
  %140 = load ptr, ptr %4, align 8, !tbaa !15
  %141 = getelementptr inbounds nuw %struct.lconv, ptr %16, i32 0, i32 14
  %142 = load i8, ptr %141, align 4, !tbaa !150
  %143 = sext i8 %142 to i64
  call void @add_assoc_long(ptr noundef %140, ptr noundef @.str.35, i64 noundef %143)
  %144 = load ptr, ptr %4, align 8, !tbaa !15
  %145 = getelementptr inbounds nuw %struct.lconv, ptr %16, i32 0, i32 15
  %146 = load i8, ptr %145, align 1, !tbaa !151
  %147 = sext i8 %146 to i64
  call void @add_assoc_long(ptr noundef %144, ptr noundef @.str.36, i64 noundef %147)
  %148 = load ptr, ptr %4, align 8, !tbaa !15
  %149 = getelementptr inbounds nuw %struct.lconv, ptr %16, i32 0, i32 16
  %150 = load i8, ptr %149, align 2, !tbaa !152
  %151 = sext i8 %150 to i64
  call void @add_assoc_long(ptr noundef %148, ptr noundef @.str.37, i64 noundef %151)
  %152 = load ptr, ptr %4, align 8, !tbaa !15
  %153 = getelementptr inbounds nuw %struct.lconv, ptr %16, i32 0, i32 17
  %154 = load i8, ptr %153, align 1, !tbaa !153
  %155 = sext i8 %154 to i64
  call void @add_assoc_long(ptr noundef %152, ptr noundef @.str.38, i64 noundef %155)
  call void @llvm.lifetime.end.p0(i64 96, ptr %16) #22
  %156 = load ptr, ptr %4, align 8, !tbaa !15
  %157 = getelementptr inbounds nuw %struct._zval_struct, ptr %156, i32 0, i32 0
  %158 = load ptr, ptr %157, align 8, !tbaa !12
  %159 = call ptr @zend_hash_str_update(ptr noundef %158, ptr noundef @.str.39, i64 noundef 8, ptr noundef %5)
  %160 = load ptr, ptr %4, align 8, !tbaa !15
  %161 = getelementptr inbounds nuw %struct._zval_struct, ptr %160, i32 0, i32 0
  %162 = load ptr, ptr %161, align 8, !tbaa !12
  %163 = call ptr @zend_hash_str_update(ptr noundef %162, ptr noundef @.str.40, i64 noundef 12, ptr noundef %6)
  store i32 0, ptr %9, align 4
  br label %164

164:                                              ; preds = %99, %29
  call void @llvm.lifetime.end.p0(i64 8, ptr %8) #22
  call void @llvm.lifetime.end.p0(i64 8, ptr %7) #22
  call void @llvm.lifetime.end.p0(i64 16, ptr %6) #22
  call void @llvm.lifetime.end.p0(i64 16, ptr %5) #22
  %165 = load i32, ptr %9, align 4
  switch i32 %165, label %167 [
    i32 0, label %166
    i32 1, label %166
  ]

166:                                              ; preds = %164, %164
  ret void

167:                                              ; preds = %164
  unreachable
}