; Function Attrs: nounwind uwtable
define hidden void @zif_localeconv(ptr noundef readonly captures(none) %0, ptr noundef %1) local_unnamed_addr #0 {
  %3 = alloca %struct._zval_struct, align 8
  %4 = alloca %struct._zval_struct, align 8
  call void @llvm.lifetime.start.p0(i64 16, ptr nonnull %3) #28
  call void @llvm.lifetime.start.p0(i64 16, ptr nonnull %4) #28
  %5 = getelementptr inbounds nuw i8, ptr %0, i64 44
  %6 = load i32, ptr %5, align 4, !tbaa !10
  %.not = icmp eq i32 %6, 0
  br i1 %.not, label %8, label %7, !prof !12

7:                                                ; preds = %2
  tail call void @zend_wrong_parameters_none_error() #28
  br label %38

8:                                                ; preds = %2
  %9 = tail call ptr @_zend_new_array_0() #28
  store ptr %9, ptr %1, align 8, !tbaa !10
  %10 = getelementptr inbounds nuw i8, ptr %1, i64 8
  store i32 775, ptr %10, align 8, !tbaa !10
  %11 = tail call ptr @_zend_new_array_0() #28
  store ptr %11, ptr %3, align 8, !tbaa !10
  %12 = getelementptr inbounds nuw i8, ptr %3, i64 8
  store i32 775, ptr %12, align 8, !tbaa !10
  %13 = tail call ptr @_zend_new_array_0() #28
  store ptr %13, ptr %4, align 8, !tbaa !10
  %14 = getelementptr inbounds nuw i8, ptr %4, i64 8
  store i32 775, ptr %14, align 8, !tbaa !10
  %15 = tail call ptr @localeconv() #28
  %.sroa.0.0.copyload = load ptr, ptr %15, align 8, !tbaa !5
  %.sroa.4.0..sroa_idx = getelementptr inbounds nuw i8, ptr %15, i64 8
  %.sroa.4.0.copyload = load ptr, ptr %.sroa.4.0..sroa_idx, align 8, !tbaa !5
  %.sroa.5.0..sroa_idx = getelementptr inbounds nuw i8, ptr %15, i64 16
  %.sroa.5.0.copyload = load ptr, ptr %.sroa.5.0..sroa_idx, align 8, !tbaa !5
  %.sroa.7.0..sroa_idx = getelementptr inbounds nuw i8, ptr %15, i64 24
  %.sroa.7.0.copyload = load ptr, ptr %.sroa.7.0..sroa_idx, align 8, !tbaa !5
  %.sroa.8.0..sroa_idx = getelementptr inbounds nuw i8, ptr %15, i64 32
  %.sroa.8.0.copyload = load ptr, ptr %.sroa.8.0..sroa_idx, align 8, !tbaa !5
  %.sroa.9.0..sroa_idx = getelementptr inbounds nuw i8, ptr %15, i64 40
  %.sroa.9.0.copyload = load ptr, ptr %.sroa.9.0..sroa_idx, align 8, !tbaa !5
  %.sroa.10.0..sroa_idx = getelementptr inbounds nuw i8, ptr %15, i64 48
  %.sroa.10.0.copyload = load ptr, ptr %.sroa.10.0..sroa_idx, align 8, !tbaa !5
  %.sroa.11.0..sroa_idx = getelementptr inbounds nuw i8, ptr %15, i64 56
  %.sroa.11.0.copyload = load ptr, ptr %.sroa.11.0..sroa_idx, align 8, !tbaa !5
  %.sroa.13.0..sroa_idx = getelementptr inbounds nuw i8, ptr %15, i64 64
  %.sroa.13.0.copyload = load ptr, ptr %.sroa.13.0..sroa_idx, align 8, !tbaa !5
  %.sroa.14.0..sroa_idx = getelementptr inbounds nuw i8, ptr %15, i64 72
  %.sroa.14.0.copyload = load ptr, ptr %.sroa.14.0..sroa_idx, align 8, !tbaa !5
  %.sroa.15.0..sroa_idx = getelementptr inbounds nuw i8, ptr %15, i64 80
  %.sroa.15.0.copyload = load i8, ptr %.sroa.15.0..sroa_idx, align 8, !tbaa !10
  %.sroa.16.0..sroa_idx = getelementptr inbounds nuw i8, ptr %15, i64 81
  %.sroa.16.0.copyload = load i8, ptr %.sroa.16.0..sroa_idx, align 1, !tbaa !10
  %.sroa.17.0..sroa_idx = getelementptr inbounds nuw i8, ptr %15, i64 82
  %.sroa.17.0.copyload = load i8, ptr %.sroa.17.0..sroa_idx, align 2, !tbaa !10
  %.sroa.18.0..sroa_idx = getelementptr inbounds nuw i8, ptr %15, i64 83
  %.sroa.18.0.copyload = load i8, ptr %.sroa.18.0..sroa_idx, align 1, !tbaa !10
  %.sroa.19.0..sroa_idx = getelementptr inbounds nuw i8, ptr %15, i64 84
  %.sroa.19.0.copyload = load i8, ptr %.sroa.19.0..sroa_idx, align 4, !tbaa !10
  %.sroa.20.0..sroa_idx = getelementptr inbounds nuw i8, ptr %15, i64 85
  %.sroa.20.0.copyload = load i8, ptr %.sroa.20.0..sroa_idx, align 1, !tbaa !10
  %.sroa.21.0..sroa_idx = getelementptr inbounds nuw i8, ptr %15, i64 86
  %.sroa.21.0.copyload = load i8, ptr %.sroa.21.0..sroa_idx, align 2, !tbaa !10
  %.sroa.22.0..sroa_idx = getelementptr inbounds nuw i8, ptr %15, i64 87
  %.sroa.22.0.copyload = load i8, ptr %.sroa.22.0..sroa_idx, align 1, !tbaa !10
  %16 = tail call i64 @strlen(ptr noundef nonnull dereferenceable(1) %.sroa.5.0.copyload) #30
  %.not45 = icmp eq i64 %16, 0
  br i1 %.not45, label %._crit_edge, label %.lr.ph

.lr.ph:                                           ; preds = %8, %.lr.ph
  %.040 = phi i64 [ %20, %.lr.ph ], [ 0, %8 ]
  %17 = getelementptr inbounds nuw i8, ptr %.sroa.5.0.copyload, i64 %.040
  %18 = load i8, ptr %17, align 1, !tbaa !10
  %19 = sext i8 %18 to i64
  call void @add_index_long(ptr noundef nonnull %3, i64 noundef %.040, i64 noundef %19) #28
  %20 = add nuw i64 %.040, 1
  %exitcond.not = icmp eq i64 %20, %16
  br i1 %exitcond.not, label %._crit_edge, label %.lr.ph

._crit_edge:                                      ; preds = %.lr.ph, %8
  %21 = call i64 @strlen(ptr noundef nonnull dereferenceable(1) %.sroa.11.0.copyload) #30
  %.not46 = icmp eq i64 %21, 0
  br i1 %.not46, label %._crit_edge44, label %.lr.ph43

.lr.ph43:                                         ; preds = %._crit_edge, %.lr.ph43
  %.141 = phi i64 [ %25, %.lr.ph43 ], [ 0, %._crit_edge ]
  %22 = getelementptr inbounds nuw i8, ptr %.sroa.11.0.copyload, i64 %.141
  %23 = load i8, ptr %22, align 1, !tbaa !10
  %24 = sext i8 %23 to i64
  call void @add_index_long(ptr noundef nonnull %4, i64 noundef %.141, i64 noundef %24) #28
  %25 = add nuw i64 %.141, 1
  %exitcond47.not = icmp eq i64 %25, %21
  br i1 %exitcond47.not, label %._crit_edge44, label %.lr.ph43

._crit_edge44:                                    ; preds = %.lr.ph43, %._crit_edge
  call void @add_assoc_string_ex(ptr noundef nonnull %1, ptr noundef nonnull @.str.23, i64 noundef 13, ptr noundef %.sroa.0.0.copyload) #28
  call void @add_assoc_string_ex(ptr noundef nonnull %1, ptr noundef nonnull @.str.24, i64 noundef 13, ptr noundef %.sroa.4.0.copyload) #28
  call void @add_assoc_string_ex(ptr noundef nonnull %1, ptr noundef nonnull @.str.25, i64 noundef 15, ptr noundef %.sroa.7.0.copyload) #28
  call void @add_assoc_string_ex(ptr noundef nonnull %1, ptr noundef nonnull @.str.26, i64 noundef 15, ptr noundef %.sroa.8.0.copyload) #28
  call void @add_assoc_string_ex(ptr noundef nonnull %1, ptr noundef nonnull @.str.27, i64 noundef 17, ptr noundef %.sroa.9.0.copyload) #28
  call void @add_assoc_string_ex(ptr noundef nonnull %1, ptr noundef nonnull @.str.28, i64 noundef 17, ptr noundef %.sroa.10.0.copyload) #28
  call void @add_assoc_string_ex(ptr noundef nonnull %1, ptr noundef nonnull @.str.29, i64 noundef 13, ptr noundef %.sroa.13.0.copyload) #28
  call void @add_assoc_string_ex(ptr noundef nonnull %1, ptr noundef nonnull @.str.30, i64 noundef 13, ptr noundef %.sroa.14.0.copyload) #28
  %26 = sext i8 %.sroa.15.0.copyload to i64
  call void @add_assoc_long_ex(ptr noundef nonnull %1, ptr noundef nonnull @.str.31, i64 noundef 15, i64 noundef range(i64 -128, 128) %26) #28
  %27 = sext i8 %.sroa.16.0.copyload to i64
  call void @add_assoc_long_ex(ptr noundef nonnull %1, ptr noundef nonnull @.str.32, i64 noundef 11, i64 noundef range(i64 -128, 128) %27) #28
  %28 = sext i8 %.sroa.17.0.copyload to i64
  call void @add_assoc_long_ex(ptr noundef nonnull %1, ptr noundef nonnull @.str.33, i64 noundef 13, i64 noundef range(i64 -128, 128) %28) #28
  %29 = sext i8 %.sroa.18.0.copyload to i64
  call void @add_assoc_long_ex(ptr noundef nonnull %1, ptr noundef nonnull @.str.34, i64 noundef 14, i64 noundef range(i64 -128, 128) %29) #28
  %30 = sext i8 %.sroa.19.0.copyload to i64
  call void @add_assoc_long_ex(ptr noundef nonnull %1, ptr noundef nonnull @.str.35, i64 noundef 13, i64 noundef range(i64 -128, 128) %30) #28
  %31 = sext i8 %.sroa.20.0.copyload to i64
  call void @add_assoc_long_ex(ptr noundef nonnull %1, ptr noundef nonnull @.str.36, i64 noundef 14, i64 noundef range(i64 -128, 128) %31) #28
  %32 = sext i8 %.sroa.21.0.copyload to i64
  call void @add_assoc_long_ex(ptr noundef nonnull %1, ptr noundef nonnull @.str.37, i64 noundef 11, i64 noundef range(i64 -128, 128) %32) #28
  %33 = sext i8 %.sroa.22.0.copyload to i64
  call void @add_assoc_long_ex(ptr noundef nonnull %1, ptr noundef nonnull @.str.38, i64 noundef 11, i64 noundef range(i64 -128, 128) %33) #28
  %34 = load ptr, ptr %1, align 8, !tbaa !10
  %35 = call ptr @zend_hash_str_update(ptr noundef %34, ptr noundef nonnull @.str.39, i64 noundef 8, ptr noundef nonnull %3) #28
  %36 = load ptr, ptr %1, align 8, !tbaa !10
  %37 = call ptr @zend_hash_str_update(ptr noundef %36, ptr noundef nonnull @.str.40, i64 noundef 12, ptr noundef nonnull %4) #28
  br label %38

38:                                               ; preds = %._crit_edge44, %7
  call void @llvm.lifetime.end.p0(i64 16, ptr nonnull %4) #28
  call void @llvm.lifetime.end.p0(i64 16, ptr nonnull %3) #28
  ret void
}